target datalayout = "e-m:e-p270:32:32-p271:32:32-p272:64:64-i64:64-i128:128-f80:128-n8:16:32:64-S128"
target triple = "x86_64-pc-linux-gnu"

%class.bit_vector = type { i32, i32, ptr }

; Function Attrs: mustprogress uwtable
define hidden void @_ZN10bit_vector9expand_toEj(ptr noundef nonnull align 8 dereferenceable(16) %0, i32 noundef %1) #4 align 2 {
  %3 = alloca ptr, align 8
  %4 = alloca i32, align 4
  store ptr %0, ptr %3, align 8, !tbaa !3
  store i32 %1, ptr %4, align 4, !tbaa !8
  %5 = load ptr, ptr %3, align 8
  %6 = getelementptr inbounds nuw %class.bit_vector, ptr %5, i32 0, i32 2
  %7 = load ptr, ptr %6, align 8, !tbaa !10
  %8 = icmp ne ptr %7, null
  br i1 %8, label %9, label %17

9:                                                ; preds = %2
  %10 = getelementptr inbounds nuw %class.bit_vector, ptr %5, i32 0, i32 2
  %11 = load ptr, ptr %10, align 8, !tbaa !10
  %12 = load i32, ptr %4, align 4, !tbaa !8
  %13 = zext i32 %12 to i64
  %14 = mul i64 %13, 4
  %15 = call noalias noundef ptr @_ZN6memory10reallocateEPvm(ptr noundef %11, i64 noundef %14)
  %16 = getelementptr inbounds nuw %class.bit_vector, ptr %5, i32 0, i32 2
  store ptr %15, ptr %16, align 8, !tbaa !10
  br label %23

17:                                               ; preds = %2
  %18 = load i32, ptr %4, align 4, !tbaa !8
  %19 = zext i32 %18 to i64
  %20 = mul i64 4, %19
  %21 = call noalias noundef ptr @_ZN6memory8allocateEm(i64 noundef %20)
  %22 = getelementptr inbounds nuw %class.bit_vector, ptr %5, i32 0, i32 2
  store ptr %21, ptr %22, align 8, !tbaa !10
  br label %23

23:                                               ; preds = %17, %9
  %24 = getelementptr inbounds nuw %class.bit_vector, ptr %5, i32 0, i32 2
  %25 = load ptr, ptr %24, align 8, !tbaa !10
  %26 = getelementptr inbounds nuw %class.bit_vector, ptr %5, i32 0, i32 1
  %27 = load i32, ptr %26, align 4, !tbaa !13
  %28 = zext i32 %27 to i64
  %29 = getelementptr inbounds nuw i32, ptr %25, i64 %28
  %30 = load i32, ptr %4, align 4, !tbaa !8
  %31 = getelementptr inbounds nuw %class.bit_vector, ptr %5, i32 0, i32 1
  %32 = load i32, ptr %31, align 4, !tbaa !13
  %33 = sub i32 %30, %32
  %34 = zext i32 %33 to i64
  %35 = mul i64 %34, 4
  call void @llvm.memset.p0.i64(ptr align 4 %29, i8 0, i64 %35, i1 false)
  %36 = load i32, ptr %4, align 4, !tbaa !8
  %37 = getelementptr inbounds nuw %class.bit_vector, ptr %5, i32 0, i32 1
  store i32 %36, ptr %37, align 4, !tbaa !13
  ret void
}

; Function Attrs: mustprogress nounwind uwtable
define linkonce_odr hidden noundef i32 @_ZN10bit_vector9num_wordsEj(i32 noundef %0) #6 comdat align 2 {
  %2 = alloca i32, align 4
  store i32 %0, ptr %2, align 4, !tbaa !8
  %3 = load i32, ptr %2, align 4, !tbaa !8
  %4 = add i32 %3, 31
  %5 = udiv i32 %4, 32
  ret i32 %5
}

; Function Attrs: mustprogress nounwind uwtable
define linkonce_odr hidden noundef i32 @_ZNK10bit_vector9num_wordsEv(ptr noundef nonnull align 8 dereferenceable(16) %0) #6 comdat align 2 {
  %2 = alloca ptr, align 8
  store ptr %0, ptr %2, align 8, !tbaa !3
  %3 = load ptr, ptr %2, align 8
  %4 = getelementptr inbounds nuw %class.bit_vector, ptr %3, i32 0, i32 0
  %5 = load i32, ptr %4, align 8, !tbaa !16
  %6 = call noundef i32 @_ZN10bit_vector9num_wordsEj(i32 noundef %5)
  ret i32 %6
}

; Function Attrs: mustprogress uwtable
define hidden void @_ZN10bit_vector6resizeEjb(ptr noundef nonnull align 8 dereferenceable(16) %0, i32 noundef %1, i1 noundef zeroext %2) #4 align 2 {
  %4 = alloca ptr, align 8
  %5 = alloca i32, align 4
  %6 = alloca i8, align 1
  %7 = alloca i32, align 4
  %8 = alloca i32, align 4
  %9 = alloca ptr, align 8
  %10 = alloca i32, align 4
  %11 = alloca i32, align 4
  %12 = alloca i32, align 4
  store ptr %0, ptr %4, align 8, !tbaa !3
  store i32 %1, ptr %5, align 4, !tbaa !8
  %13 = zext i1 %2 to i8
  store i8 %13, ptr %6, align 1, !tbaa !14
  %14 = load ptr, ptr %4, align 8
  %15 = load i32, ptr %5, align 4, !tbaa !8
  %16 = getelementptr inbounds nuw %class.bit_vector, ptr %14, i32 0, i32 0
  %17 = load i32, ptr %16, align 8, !tbaa !16
  %18 = icmp ule i32 %15, %17
  br i1 %18, label %19, label %22

19:                                               ; preds = %3
  %20 = load i32, ptr %5, align 4, !tbaa !8
  %21 = getelementptr inbounds nuw %class.bit_vector, ptr %14, i32 0, i32 0
  store i32 %20, ptr %21, align 8, !tbaa !16
  br label %82

22:                                               ; preds = %3
  %23 = load i32, ptr %5, align 4, !tbaa !8
  %24 = call noundef i32 @_ZN10bit_vector9num_wordsEj(i32 noundef %23)
  %25 = getelementptr inbounds nuw %class.bit_vector, ptr %14, i32 0, i32 1
  %26 = load i32, ptr %25, align 4, !tbaa !13
  %27 = icmp ugt i32 %24, %26
  br i1 %27, label %28, label %34

28:                                               ; preds = %22
  %29 = load i32, ptr %5, align 4, !tbaa !8
  %30 = call noundef i32 @_ZN10bit_vector9num_wordsEj(i32 noundef %29)
  %31 = mul i32 %30, 3
  %32 = add i32 %31, 1
  %33 = lshr i32 %32, 1
  call void @_ZN10bit_vector9expand_toEj(ptr noundef nonnull align 8 dereferenceable(16) %14, i32 noundef %33)
  br label %34

34:                                               ; preds = %28, %22
  call void @llvm.lifetime.start.p0(i64 4, ptr %7) #3
  %35 = getelementptr inbounds nuw %class.bit_vector, ptr %14, i32 0, i32 0
  %36 = load i32, ptr %35, align 8, !tbaa !16
  %37 = udiv i32 %36, 32
  store i32 %37, ptr %7, align 4, !tbaa !8
  call void @llvm.lifetime.start.p0(i64 4, ptr %8) #3
  %38 = load i32, ptr %5, align 4, !tbaa !8
  %39 = call noundef i32 @_ZN10bit_vector9num_wordsEj(i32 noundef %38)
  store i32 %39, ptr %8, align 4, !tbaa !8
  call void @llvm.lifetime.start.p0(i64 8, ptr %9) #3
  %40 = getelementptr inbounds nuw %class.bit_vector, ptr %14, i32 0, i32 2
  %41 = load ptr, ptr %40, align 8, !tbaa !10
  %42 = load i32, ptr %7, align 4, !tbaa !8
  %43 = zext i32 %42 to i64
  %44 = getelementptr inbounds nuw i32, ptr %41, i64 %43
  store ptr %44, ptr %9, align 8, !tbaa !17
  call void @llvm.lifetime.start.p0(i64 4, ptr %10) #3
  %45 = getelementptr inbounds nuw %class.bit_vector, ptr %14, i32 0, i32 0
  %46 = load i32, ptr %45, align 8, !tbaa !16
  %47 = urem i32 %46, 32
  store i32 %47, ptr %10, align 4, !tbaa !8
  call void @llvm.lifetime.start.p0(i64 4, ptr %11) #3
  %48 = load i32, ptr %10, align 4, !tbaa !8
  %49 = shl i32 1, %48
  %50 = sub i32 %49, 1
  store i32 %50, ptr %11, align 4, !tbaa !8
  call void @llvm.lifetime.start.p0(i64 4, ptr %12) #3
  %51 = load i8, ptr %6, align 1, !tbaa !14, !range !18, !noundef !19
  %52 = trunc i8 %51 to i1
  br i1 %52, label %53, label %59

53:                                               ; preds = %34
  %54 = load i32, ptr %11, align 4, !tbaa !8
  %55 = xor i32 %54, -1
  %56 = load ptr, ptr %9, align 8, !tbaa !17
  %57 = load i32, ptr %56, align 4, !tbaa !8
  %58 = or i32 %57, %55
  store i32 %58, ptr %56, align 4, !tbaa !8
  store i32 -1, ptr %12, align 4, !tbaa !8
  br label %64

59:                                               ; preds = %34
  %60 = load i32, ptr %11, align 4, !tbaa !8
  %61 = load ptr, ptr %9, align 8, !tbaa !17
  %62 = load i32, ptr %61, align 4, !tbaa !8
  %63 = and i32 %62, %60
  store i32 %63, ptr %61, align 4, !tbaa !8
  store i32 0, ptr %12, align 4, !tbaa !8
  br label %64

64:                                               ; preds = %59, %53
  %65 = load i32, ptr %7, align 4, !tbaa !8
  %66 = load i32, ptr %8, align 4, !tbaa !8
  %67 = icmp ult i32 %65, %66
  br i1 %67, label %68, label %79

68:                                               ; preds = %64
  %69 = load ptr, ptr %9, align 8, !tbaa !17
  %70 = getelementptr inbounds i32, ptr %69, i64 1
  %71 = load i32, ptr %12, align 4, !tbaa !8
  %72 = trunc i32 %71 to i8
  %73 = load i32, ptr %8, align 4, !tbaa !8
  %74 = load i32, ptr %7, align 4, !tbaa !8
  %75 = sub i32 %73, %74
  %76 = sub i32 %75, 1
  %77 = zext i32 %76 to i64
  %78 = mul i64 %77, 4
  call void @llvm.memset.p0.i64(ptr align 4 %70, i8 %72, i64 %78, i1 false)
  br label %79

79:                                               ; preds = %68, %64
  %80 = load i32, ptr %5, align 4, !tbaa !8
  %81 = getelementptr inbounds nuw %class.bit_vector, ptr %14, i32 0, i32 0
  store i32 %80, ptr %81, align 8, !tbaa !16
  call void @llvm.lifetime.end.p0(i64 4, ptr %12) #3
  call void @llvm.lifetime.end.p0(i64 4, ptr %11) #3
  call void @llvm.lifetime.end.p0(i64 4, ptr %10) #3
  call void @llvm.lifetime.end.p0(i64 8, ptr %9) #3
  call void @llvm.lifetime.end.p0(i64 4, ptr %8) #3
  call void @llvm.lifetime.end.p0(i64 4, ptr %7) #3
  br label %82

82:                                               ; preds = %79, %19
  ret void
}

; Function Attrs: mustprogress nounwind uwtable
define linkonce_odr hidden noundef i32 @_ZNK10bit_vector4sizeEv(ptr noundef nonnull align 8 dereferenceable(16) %0) #6 comdat align 2 {
  %2 = alloca ptr, align 8
  store ptr %0, ptr %2, align 8, !tbaa !3
  %3 = load ptr, ptr %2, align 8
  %4 = getelementptr inbounds nuw %class.bit_vector, ptr %3, i32 0, i32 0
  %5 = load i32, ptr %4, align 8, !tbaa !16
  ret i32 %5
}

; Function Attrs: mustprogress uwtable
define hidden noundef nonnull align 8 dereferenceable(16) ptr @_ZN10bit_vectoroRERKS_(ptr noundef nonnull align 8 dereferenceable(16) %0, ptr noundef nonnull align 8 dereferenceable(16) %1) #4 align 2 {
  %3 = alloca ptr, align 8
  %4 = alloca ptr, align 8
  %5 = alloca i32, align 4
  %6 = alloca i32, align 4
  %7 = alloca i32, align 4
  %8 = alloca i32, align 4
  %9 = alloca i32, align 4
  store ptr %0, ptr %3, align 8, !tbaa !3
  store ptr %1, ptr %4, align 8, !tbaa !3
  %10 = load ptr, ptr %3, align 8
  %11 = call noundef i32 @_ZNK10bit_vector4sizeEv(ptr noundef nonnull align 8 dereferenceable(16) %10)
  %12 = load ptr, ptr %4, align 8, !tbaa !3
  %13 = call noundef i32 @_ZNK10bit_vector4sizeEv(ptr noundef nonnull align 8 dereferenceable(16) %12)
  %14 = icmp ult i32 %11, %13
  br i1 %14, label %15, label %18

15:                                               ; preds = %2
  %16 = load ptr, ptr %4, align 8, !tbaa !3
  %17 = call noundef i32 @_ZNK10bit_vector4sizeEv(ptr noundef nonnull align 8 dereferenceable(16) %16)
  call void @_ZN10bit_vector6resizeEjb(ptr noundef nonnull align 8 dereferenceable(16) %10, i32 noundef %17, i1 noundef zeroext false)
  br label %18

18:                                               ; preds = %15, %2
  call void @llvm.lifetime.start.p0(i64 4, ptr %5) #3
  %19 = load ptr, ptr %4, align 8, !tbaa !3
  %20 = call noundef i32 @_ZNK10bit_vector9num_wordsEv(ptr noundef nonnull align 8 dereferenceable(16) %19)
  store i32 %20, ptr %5, align 4, !tbaa !8
  call void @llvm.lifetime.start.p0(i64 4, ptr %6) #3
  %21 = load ptr, ptr %4, align 8, !tbaa !3
  %22 = getelementptr inbounds nuw %class.bit_vector, ptr %21, i32 0, i32 0
  %23 = load i32, ptr %22, align 8, !tbaa !16
  %24 = urem i32 %23, 32
  store i32 %24, ptr %6, align 4, !tbaa !8
  %25 = load i32, ptr %6, align 4, !tbaa !8
  %26 = icmp eq i32 %25, 0
  br i1 %26, label %27, label %51

27:                                               ; preds = %18
  call void @llvm.lifetime.start.p0(i64 4, ptr %7) #3
  store i32 0, ptr %7, align 4, !tbaa !8
  store i32 0, ptr %7, align 4, !tbaa !8
  br label %28

28:                                               ; preds = %47, %27
  %29 = load i32, ptr %7, align 4, !tbaa !8
  %30 = load i32, ptr %5, align 4, !tbaa !8
  %31 = icmp ult i32 %29, %30
  br i1 %31, label %32, label %50

32:                                               ; preds = %28
  %33 = load ptr, ptr %4, align 8, !tbaa !3
  %34 = getelementptr inbounds nuw %class.bit_vector, ptr %33, i32 0, i32 2
  %35 = load ptr, ptr %34, align 8, !tbaa !10
  %36 = load i32, ptr %7, align 4, !tbaa !8
  %37 = zext i32 %36 to i64
  %38 = getelementptr inbounds nuw i32, ptr %35, i64 %37
  %39 = load i32, ptr %38, align 4, !tbaa !8
  %40 = getelementptr inbounds nuw %class.bit_vector, ptr %10, i32 0, i32 2
  %41 = load ptr, ptr %40, align 8, !tbaa !10
  %42 = load i32, ptr %7, align 4, !tbaa !8
  %43 = zext i32 %42 to i64
  %44 = getelementptr inbounds nuw i32, ptr %41, i64 %43
  %45 = load i32, ptr %44, align 4, !tbaa !8
  %46 = or i32 %45, %39
  store i32 %46, ptr %44, align 4, !tbaa !8
  br label %47

47:                                               ; preds = %32
  %48 = load i32, ptr %7, align 4, !tbaa !8
  %49 = add i32 %48, 1
  store i32 %49, ptr %7, align 4, !tbaa !8
  br label %28, !llvm.loop !25

50:                                               ; preds = %28
  call void @llvm.lifetime.end.p0(i64 4, ptr %7) #3
  br label %95

51:                                               ; preds = %18
  call void @llvm.lifetime.start.p0(i64 4, ptr %8) #3
  store i32 0, ptr %8, align 4, !tbaa !8
  store i32 0, ptr %8, align 4, !tbaa !8
  br label %52

52:                                               ; preds = %72, %51
  %53 = load i32, ptr %8, align 4, !tbaa !8
  %54 = load i32, ptr %5, align 4, !tbaa !8
  %55 = sub i32 %54, 1
  %56 = icmp ult i32 %53, %55
  br i1 %56, label %57, label %75

57:                                               ; preds = %52
  %58 = load ptr, ptr %4, align 8, !tbaa !3
  %59 = getelementptr inbounds nuw %class.bit_vector, ptr %58, i32 0, i32 2
  %60 = load ptr, ptr %59, align 8, !tbaa !10
  %61 = load i32, ptr %8, align 4, !tbaa !8
  %62 = zext i32 %61 to i64
  %63 = getelementptr inbounds nuw i32, ptr %60, i64 %62
  %64 = load i32, ptr %63, align 4, !tbaa !8
  %65 = getelementptr inbounds nuw %class.bit_vector, ptr %10, i32 0, i32 2
  %66 = load ptr, ptr %65, align 8, !tbaa !10
  %67 = load i32, ptr %8, align 4, !tbaa !8
  %68 = zext i32 %67 to i64
  %69 = getelementptr inbounds nuw i32, ptr %66, i64 %68
  %70 = load i32, ptr %69, align 4, !tbaa !8
  %71 = or i32 %70, %64
  store i32 %71, ptr %69, align 4, !tbaa !8
  br label %72

72:                                               ; preds = %57
  %73 = load i32, ptr %8, align 4, !tbaa !8
  %74 = add i32 %73, 1
  store i32 %74, ptr %8, align 4, !tbaa !8
  br label %52, !llvm.loop !26

75:                                               ; preds = %52
  call void @llvm.lifetime.start.p0(i64 4, ptr %9) #3
  %76 = load i32, ptr %6, align 4, !tbaa !8
  %77 = shl i32 1, %76
  %78 = sub i32 %77, 1
  store i32 %78, ptr %9, align 4, !tbaa !8
  %79 = load ptr, ptr %4, align 8, !tbaa !3
  %80 = getelementptr inbounds nuw %class.bit_vector, ptr %79, i32 0, i32 2
  %81 = load ptr, ptr %80, align 8, !tbaa !10
  %82 = load i32, ptr %8, align 4, !tbaa !8
  %83 = zext i32 %82 to i64
  %84 = getelementptr inbounds nuw i32, ptr %81, i64 %83
  %85 = load i32, ptr %84, align 4, !tbaa !8
  %86 = load i32, ptr %9, align 4, !tbaa !8
  %87 = and i32 %85, %86
  %88 = getelementptr inbounds nuw %class.bit_vector, ptr %10, i32 0, i32 2
  %89 = load ptr, ptr %88, align 8, !tbaa !10
  %90 = load i32, ptr %8, align 4, !tbaa !8
  %91 = zext i32 %90 to i64
  %92 = getelementptr inbounds nuw i32, ptr %89, i64 %91
  %93 = load i32, ptr %92, align 4, !tbaa !8
  %94 = or i32 %93, %87
  store i32 %94, ptr %92, align 4, !tbaa !8
  call void @llvm.lifetime.end.p0(i64 4, ptr %9) #3
  call void @llvm.lifetime.end.p0(i64 4, ptr %8) #3
  br label %95

95:                                               ; preds = %75, %50
  call void @llvm.lifetime.end.p0(i64 4, ptr %6) #3
  call void @llvm.lifetime.end.p0(i64 4, ptr %5) #3
  ret ptr %10
}