; Function Attrs: mustprogress uwtable
define hidden noundef nonnull align 8 dereferenceable(16) ptr @_ZN10bit_vectoroRERKS_(ptr noundef nonnull returned align 8 captures(ret: address, provenance) dereferenceable(16) %0, ptr noundef nonnull readonly align 8 captures(none) dereferenceable(16) %1) local_unnamed_addr #3 align 2 {
  %3 = load i32, ptr %0, align 8, !tbaa !11
  %4 = load i32, ptr %1, align 8, !tbaa !11
  %5 = icmp ult i32 %3, %4
  br i1 %5, label %6, label %47

6:                                                ; preds = %2
  %7 = add i32 %4, 31
  %8 = lshr i32 %7, 5
  %9 = getelementptr inbounds nuw i8, ptr %0, i64 4
  %10 = load i32, ptr %9, align 4, !tbaa !10
  %11 = icmp ugt i32 %8, %10
  br i1 %11, label %12, label %._crit_edge.i

._crit_edge.i:                                    ; preds = %6
  %.phi.trans.insert.i = getelementptr inbounds nuw i8, ptr %0, i64 8
  %.pre22.i = load ptr, ptr %.phi.trans.insert.i, align 8, !tbaa !3
  br label %30

12:                                               ; preds = %6
  %13 = mul nuw nsw i32 %8, 3
  %14 = add nuw nsw i32 %13, 1
  %15 = lshr i32 %14, 1
  %16 = getelementptr inbounds nuw i8, ptr %0, i64 8
  %17 = load ptr, ptr %16, align 8, !tbaa !3
  %.not.i.i = icmp eq ptr %17, null
  %18 = shl nuw nsw i32 %15, 2
  %19 = zext nneg i32 %18 to i64
  br i1 %.not.i.i, label %22, label %20

20:                                               ; preds = %12
  %21 = tail call noalias noundef ptr @_ZN6memory10reallocateEPvm(ptr noundef nonnull %17, i64 noundef %19)
  br label %_ZN10bit_vector9expand_toEj.exit.i

22:                                               ; preds = %12
  %23 = tail call noalias noundef ptr @_ZN6memory8allocateEm(i64 noundef %19)
  br label %_ZN10bit_vector9expand_toEj.exit.i

_ZN10bit_vector9expand_toEj.exit.i:               ; preds = %22, %20
  %storemerge.i.i = phi ptr [ %23, %22 ], [ %21, %20 ]
  store ptr %storemerge.i.i, ptr %16, align 8, !tbaa !3
  %24 = load i32, ptr %9, align 4, !tbaa !10
  %25 = zext i32 %24 to i64
  %26 = getelementptr inbounds nuw i32, ptr %storemerge.i.i, i64 %25
  %27 = sub i32 %15, %24
  %28 = zext i32 %27 to i64
  %29 = shl nuw nsw i64 %28, 2
  tail call void @llvm.memset.p0.i64(ptr align 4 %26, i8 0, i64 %29, i1 false)
  store i32 %15, ptr %9, align 4, !tbaa !10
  %.pre.i = load i32, ptr %0, align 8, !tbaa !11
  br label %30

30:                                               ; preds = %_ZN10bit_vector9expand_toEj.exit.i, %._crit_edge.i
  %31 = phi ptr [ %storemerge.i.i, %_ZN10bit_vector9expand_toEj.exit.i ], [ %.pre22.i, %._crit_edge.i ]
  %32 = phi i32 [ %.pre.i, %_ZN10bit_vector9expand_toEj.exit.i ], [ %3, %._crit_edge.i ]
  %33 = lshr i32 %32, 5
  %34 = zext nneg i32 %33 to i64
  %35 = getelementptr inbounds nuw i32, ptr %31, i64 %34
  %36 = and i32 %32, 31
  %notmask.i = shl nsw i32 -1, %36
  %37 = xor i32 %notmask.i, -1
  %38 = load i32, ptr %35, align 4, !tbaa !12
  %39 = and i32 %38, %37
  store i32 %39, ptr %35, align 4, !tbaa !12
  %40 = icmp samesign ult i32 %33, %8
  br i1 %40, label %41, label %_ZN10bit_vector6resizeEjb.exit

41:                                               ; preds = %30
  %42 = getelementptr inbounds nuw i8, ptr %35, i64 4
  %43 = xor i32 %33, -1
  %44 = add nsw i32 %8, %43
  %45 = zext i32 %44 to i64
  %46 = shl nuw nsw i64 %45, 2
  tail call void @llvm.memset.p0.i64(ptr nonnull align 4 %42, i8 0, i64 %46, i1 false)
  br label %_ZN10bit_vector6resizeEjb.exit

_ZN10bit_vector6resizeEjb.exit:                   ; preds = %30, %41
  store i32 %4, ptr %0, align 8, !tbaa !11
  %.pre = load i32, ptr %1, align 8, !tbaa !11
  br label %47

47:                                               ; preds = %_ZN10bit_vector6resizeEjb.exit, %2
  %48 = phi i32 [ %.pre, %_ZN10bit_vector6resizeEjb.exit ], [ %4, %2 ]
  %49 = add i32 %48, 31
  %50 = lshr i32 %49, 5
  %51 = and i32 %48, 31
  %52 = icmp eq i32 %51, 0
  br i1 %52, label %.preheader, label %.preheader24

.preheader24:                                     ; preds = %47
  %53 = add nsw i32 %50, -1
  %.not = icmp eq i32 %53, 0
  %.phi.trans.insert = getelementptr inbounds nuw i8, ptr %1, i64 8
  %.pre35 = load ptr, ptr %.phi.trans.insert, align 8, !tbaa !3
  %.phi.trans.insert36 = getelementptr inbounds nuw i8, ptr %0, i64 8
  %.pre37 = load ptr, ptr %.phi.trans.insert36, align 8, !tbaa !3
  br i1 %.not, label %._crit_edge, label %.lr.ph

.lr.ph:                                           ; preds = %.preheader24
  %wide.trip.count = zext i32 %53 to i64
  br label %64

.preheader:                                       ; preds = %47
  %.not28 = icmp ult i32 %49, 32
  br i1 %.not28, label %.loopexit, label %.lr.ph27

.lr.ph27:                                         ; preds = %.preheader
  %54 = getelementptr inbounds nuw i8, ptr %1, i64 8
  %55 = load ptr, ptr %54, align 8, !tbaa !3
  %56 = getelementptr inbounds nuw i8, ptr %0, i64 8
  %57 = load ptr, ptr %56, align 8, !tbaa !3
  %wide.trip.count33 = zext nneg i32 %50 to i64
  br label %58

58:                                               ; preds = %.lr.ph27, %58
  %indvars.iv30 = phi i64 [ 0, %.lr.ph27 ], [ %indvars.iv.next31, %58 ]
  %59 = getelementptr inbounds nuw i32, ptr %55, i64 %indvars.iv30
  %60 = load i32, ptr %59, align 4, !tbaa !12
  %61 = getelementptr inbounds nuw i32, ptr %57, i64 %indvars.iv30
  %62 = load i32, ptr %61, align 4, !tbaa !12
  %63 = or i32 %62, %60
  store i32 %63, ptr %61, align 4, !tbaa !12
  %indvars.iv.next31 = add nuw nsw i64 %indvars.iv30, 1
  %exitcond34.not = icmp eq i64 %indvars.iv.next31, %wide.trip.count33
  br i1 %exitcond34.not, label %.loopexit, label %58, !llvm.loop !17

64:                                               ; preds = %.lr.ph, %64
  %indvars.iv = phi i64 [ 0, %.lr.ph ], [ %indvars.iv.next, %64 ]
  %65 = getelementptr inbounds nuw i32, ptr %.pre35, i64 %indvars.iv
  %66 = load i32, ptr %65, align 4, !tbaa !12
  %67 = getelementptr inbounds nuw i32, ptr %.pre37, i64 %indvars.iv
  %68 = load i32, ptr %67, align 4, !tbaa !12
  %69 = or i32 %68, %66
  store i32 %69, ptr %67, align 4, !tbaa !12
  %indvars.iv.next = add nuw nsw i64 %indvars.iv, 1
  %exitcond.not = icmp eq i64 %indvars.iv.next, %wide.trip.count
  br i1 %exitcond.not, label %._crit_edge.loopexit, label %64, !llvm.loop !18

._crit_edge.loopexit:                             ; preds = %64
  %70 = zext i32 %53 to i64
  br label %._crit_edge

._crit_edge:                                      ; preds = %.preheader24, %._crit_edge.loopexit
  %.022.lcssa = phi i64 [ %70, %._crit_edge.loopexit ], [ 0, %.preheader24 ]
  %notmask = shl nsw i32 -1, %51
  %71 = xor i32 %notmask, -1
  %72 = getelementptr inbounds nuw i32, ptr %.pre35, i64 %.022.lcssa
  %73 = load i32, ptr %72, align 4, !tbaa !12
  %74 = and i32 %73, %71
  %75 = getelementptr inbounds nuw i32, ptr %.pre37, i64 %.022.lcssa
  %76 = load i32, ptr %75, align 4, !tbaa !12
  %77 = or i32 %76, %74
  store i32 %77, ptr %75, align 4, !tbaa !12
  br label %.loopexit

.loopexit:                                        ; preds = %58, %.preheader, %._crit_edge
  ret ptr %0
}